target datalayout = "e-m:e-p270:32:32-p271:32:32-p272:64:64-i64:64-i128:128-f80:128-n8:16:32:64-S128"
target triple = "x86_64-pc-linux-gnu"

%struct.ForEachState = type { ptr, i32 }
%struct.LockStmt = type { i32, ptr, i32, i8 }
%struct.List = type { i32, i32, i32, ptr, [0 x %union.ListCell] }
%union.ListCell = type { ptr }
%struct.RangeVar = type { i32, ptr, ptr, ptr, i8, i8, ptr, i32 }

; Function Attrs: nounwind uwtable
define dso_local void @LockTableCommand(ptr noundef %0) #0 {
  %2 = alloca ptr, align 8
  %3 = alloca ptr, align 8
  %4 = alloca %struct.ForEachState, align 8
  %5 = alloca ptr, align 8
  %6 = alloca i8, align 1
  %7 = alloca i32, align 4
  store ptr %0, ptr %2, align 8
  call void @llvm.lifetime.start.p0(i64 8, ptr %3) #6
  call void @llvm.lifetime.start.p0(i64 16, ptr %4) #6
  %8 = getelementptr inbounds nuw %struct.ForEachState, ptr %4, i32 0, i32 0
  %9 = load ptr, ptr %2, align 8
  %10 = getelementptr inbounds nuw %struct.LockStmt, ptr %9, i32 0, i32 1
  %11 = load ptr, ptr %10, align 8
  store ptr %11, ptr %8, align 8
  %12 = getelementptr inbounds nuw %struct.ForEachState, ptr %4, i32 0, i32 1
  store i32 0, ptr %12, align 8
  %13 = getelementptr i8, ptr %4, i64 12
  call void @llvm.memset.p0.i64(ptr align 4 %13, i8 0, i64 4, i1 false)
  br label %14

14:                                               ; preds = %87, %1
  %15 = getelementptr inbounds nuw %struct.ForEachState, ptr %4, i32 0, i32 0
  %16 = load ptr, ptr %15, align 8
  %17 = icmp ne ptr %16, null
  br i1 %17, label %18, label %35

18:                                               ; preds = %14
  %19 = getelementptr inbounds nuw %struct.ForEachState, ptr %4, i32 0, i32 1
  %20 = load i32, ptr %19, align 8
  %21 = getelementptr inbounds nuw %struct.ForEachState, ptr %4, i32 0, i32 0
  %22 = load ptr, ptr %21, align 8
  %23 = getelementptr inbounds nuw %struct.List, ptr %22, i32 0, i32 1
  %24 = load i32, ptr %23, align 4
  %25 = icmp slt i32 %20, %24
  br i1 %25, label %26, label %35

26:                                               ; preds = %18
  %27 = getelementptr inbounds nuw %struct.ForEachState, ptr %4, i32 0, i32 0
  %28 = load ptr, ptr %27, align 8
  %29 = getelementptr inbounds nuw %struct.List, ptr %28, i32 0, i32 3
  %30 = load ptr, ptr %29, align 8
  %31 = getelementptr inbounds nuw %struct.ForEachState, ptr %4, i32 0, i32 1
  %32 = load i32, ptr %31, align 8
  %33 = sext i32 %32 to i64
  %34 = getelementptr inbounds %union.ListCell, ptr %30, i64 %33
  store ptr %34, ptr %3, align 8
  br label %36

35:                                               ; preds = %18, %14
  store ptr null, ptr %3, align 8
  br label %36

36:                                               ; preds = %35, %26
  %37 = phi i32 [ 1, %26 ], [ 0, %35 ]
  %38 = icmp ne i32 %37, 0
  br i1 %38, label %40, label %39

39:                                               ; preds = %36
  call void @llvm.lifetime.end.p0(i64 16, ptr %4) #6
  br label %91

40:                                               ; preds = %36
  call void @llvm.lifetime.start.p0(i64 8, ptr %5) #6
  %41 = load ptr, ptr %3, align 8
  %42 = load ptr, ptr %41, align 8
  store ptr %42, ptr %5, align 8
  call void @llvm.lifetime.start.p0(i64 1, ptr %6) #6
  %43 = load ptr, ptr %5, align 8
  %44 = getelementptr inbounds nuw %struct.RangeVar, ptr %43, i32 0, i32 4
  %45 = load i8, ptr %44, align 8, !range !4, !noundef !5
  %46 = trunc i8 %45 to i1
  %47 = zext i1 %46 to i8
  store i8 %47, ptr %6, align 1
  call void @llvm.lifetime.start.p0(i64 4, ptr %7) #6
  %48 = load ptr, ptr %5, align 8
  %49 = load ptr, ptr %2, align 8
  %50 = getelementptr inbounds nuw %struct.LockStmt, ptr %49, i32 0, i32 2
  %51 = load i32, ptr %50, align 8
  %52 = load ptr, ptr %2, align 8
  %53 = getelementptr inbounds nuw %struct.LockStmt, ptr %52, i32 0, i32 3
  %54 = load i8, ptr %53, align 4, !range !4, !noundef !5
  %55 = trunc i8 %54 to i1
  %56 = select i1 %55, i32 2, i32 0
  %57 = load ptr, ptr %2, align 8
  %58 = getelementptr inbounds nuw %struct.LockStmt, ptr %57, i32 0, i32 2
  %59 = call i32 @RangeVarGetRelidExtended(ptr noundef %48, i32 noundef %51, i32 noundef %56, ptr noundef @RangeVarCallbackForLockTable, ptr noundef %58)
  store i32 %59, ptr %7, align 4
  %60 = load i32, ptr %7, align 4
  %61 = call signext i8 @get_rel_relkind(i32 noundef %60)
  %62 = sext i8 %61 to i32
  %63 = icmp eq i32 %62, 118
  br i1 %63, label %64, label %73

64:                                               ; preds = %40
  %65 = load i32, ptr %7, align 4
  %66 = load ptr, ptr %2, align 8
  %67 = getelementptr inbounds nuw %struct.LockStmt, ptr %66, i32 0, i32 2
  %68 = load i32, ptr %67, align 8
  %69 = load ptr, ptr %2, align 8
  %70 = getelementptr inbounds nuw %struct.LockStmt, ptr %69, i32 0, i32 3
  %71 = load i8, ptr %70, align 4, !range !4, !noundef !5
  %72 = trunc i8 %71 to i1
  call void @LockViewRecurse(i32 noundef %65, i32 noundef %68, i1 noundef zeroext %72, ptr noundef null)
  br label %86

73:                                               ; preds = %40
  %74 = load i8, ptr %6, align 1, !range !4, !noundef !5
  %75 = trunc i8 %74 to i1
  br i1 %75, label %76, label %85

76:                                               ; preds = %73
  %77 = load i32, ptr %7, align 4
  %78 = load ptr, ptr %2, align 8
  %79 = getelementptr inbounds nuw %struct.LockStmt, ptr %78, i32 0, i32 2
  %80 = load i32, ptr %79, align 8
  %81 = load ptr, ptr %2, align 8
  %82 = getelementptr inbounds nuw %struct.LockStmt, ptr %81, i32 0, i32 3
  %83 = load i8, ptr %82, align 4, !range !4, !noundef !5
  %84 = trunc i8 %83 to i1
  call void @LockTableRecurse(i32 noundef %77, i32 noundef %80, i1 noundef zeroext %84)
  br label %85

85:                                               ; preds = %76, %73
  br label %86

86:                                               ; preds = %85, %64
  call void @llvm.lifetime.end.p0(i64 4, ptr %7) #6
  call void @llvm.lifetime.end.p0(i64 1, ptr %6) #6
  call void @llvm.lifetime.end.p0(i64 8, ptr %5) #6
  br label %87

87:                                               ; preds = %86
  %88 = getelementptr inbounds nuw %struct.ForEachState, ptr %4, i32 0, i32 1
  %89 = load i32, ptr %88, align 8
  %90 = add i32 %89, 1
  store i32 %90, ptr %88, align 8
  br label %14, !llvm.loop !6

91:                                               ; preds = %39
  call void @llvm.lifetime.end.p0(i64 8, ptr %3) #6
  ret void
}