; Function Attrs: nounwind uwtable
define dso_local void @LockTableCommand(ptr noundef %0) local_unnamed_addr #0 {
  %2 = getelementptr inbounds nuw i8, ptr %0, i64 8
  %3 = load ptr, ptr %2, align 8
  %4 = getelementptr inbounds nuw i8, ptr %3, i64 4
  %.not = icmp eq ptr %3, null
  br i1 %.not, label %._crit_edge, label %.lr.ph

.lr.ph:                                           ; preds = %1
  %5 = getelementptr inbounds nuw i8, ptr %3, i64 16
  %6 = getelementptr inbounds nuw i8, ptr %0, i64 16
  %7 = getelementptr inbounds nuw i8, ptr %0, i64 20
  %8 = load i32, ptr %4, align 4
  %9 = icmp sgt i32 %8, 0
  br i1 %9, label %.lr.ph25, label %._crit_edge

._crit_edge:                                      ; preds = %32, %.lr.ph, %1
  ret void

.lr.ph25:                                         ; preds = %.lr.ph, %32
  %indvars.iv = phi i64 [ %indvars.iv.next, %32 ], [ 0, %.lr.ph ]
  %10 = load ptr, ptr %5, align 8
  %11 = getelementptr inbounds nuw %union.ListCell, ptr %10, i64 %indvars.iv
  %12 = load ptr, ptr %11, align 8
  %13 = getelementptr inbounds nuw i8, ptr %12, i64 32
  %14 = load i8, ptr %13, align 8, !range !4, !noundef !5
  %15 = load i32, ptr %6, align 8
  %16 = load i8, ptr %7, align 4, !range !4, !noundef !5
  %17 = trunc nuw i8 %16 to i1
  %18 = select i1 %17, i32 2, i32 0
  %19 = tail call i32 @RangeVarGetRelidExtended(ptr noundef %12, i32 noundef %15, i32 noundef %18, ptr noundef nonnull @RangeVarCallbackForLockTable, ptr noundef nonnull %6) #5
  %20 = tail call signext i8 @get_rel_relkind(i32 noundef %19) #5
  %21 = icmp eq i8 %20, 118
  br i1 %21, label %22, label %26

22:                                               ; preds = %.lr.ph25
  %23 = load i32, ptr %6, align 8
  %24 = load i8, ptr %7, align 4, !range !4, !noundef !5
  %25 = trunc nuw i8 %24 to i1
  tail call fastcc void @LockViewRecurse(i32 noundef %19, i32 noundef %23, i1 noundef zeroext %25, ptr noundef null)
  br label %32

26:                                               ; preds = %.lr.ph25
  %27 = trunc nuw i8 %14 to i1
  br i1 %27, label %28, label %32

28:                                               ; preds = %26
  %29 = load i32, ptr %6, align 8
  %30 = load i8, ptr %7, align 4, !range !4, !noundef !5
  %31 = trunc nuw i8 %30 to i1
  tail call fastcc void @LockTableRecurse(i32 noundef %19, i32 noundef %29, i1 noundef zeroext %31)
  br label %32

32:                                               ; preds = %26, %28, %22
  %indvars.iv.next = add nuw nsw i64 %indvars.iv, 1
  %33 = load i32, ptr %4, align 4
  %34 = sext i32 %33 to i64
  %35 = icmp slt i64 %indvars.iv.next, %34
  br i1 %35, label %.lr.ph25, label %._crit_edge
}